; Function Attrs: mustprogress uwtable
define hidden void @_ZN4cvc58internal6theory4sets10TheorySets15preRegisterTermENS0_12NodeTemplateILb0EEE(ptr nocapture noundef nonnull readonly align 8 dereferenceable(2336) %this, ptr nocapture noundef readonly %node) unnamed_addr #3 align 2 personality ptr @__gxx_personality_v0 {
entry:
  %agg.tmp = alloca %"class.cvc5::internal::NodeTemplate.585", align 8
  %d_internal = getelementptr inbounds i8, ptr %this, i64 2304
  %0 = load ptr, ptr %d_internal, align 8
  %1 = load ptr, ptr %node, align 8
  store ptr %1, ptr %agg.tmp, align 8
  call void @_ZN4cvc58internal6theory4sets17TheorySetsPrivate15preRegisterTermENS0_12NodeTemplateILb0EEE(ptr noundef nonnull align 8 dereferenceable(752) %0, ptr noundef nonnull %agg.tmp)
  ret void
}